ccopy_reg
_reconstructor
p0
(cpandas.core.frame
DataFrame
p1
c__builtin__
object
p2
Ntp3
Rp4
(dp5
S'_metadata'
p6
(lp7
sS'_typ'
p8
S'dataframe'
p9
sS'_data'
p10
g0
(cpandas.core.internals.managers
BlockManager
p11
g2
Ntp12
Rp13
((lp14
cpandas.core.indexes.base
_new_Index
p15
(cpandas.core.indexes.base
Index
p16
(dp17
S'data'
p18
cnumpy.core.multiarray
_reconstruct
p19
(cnumpy
ndarray
p20
(I0
tp21
S'b'
p22
tp23
Rp24
(I1
(I54
tp25
cnumpy
dtype
p26
(S'O8'
p27
I0
I1
tp28
Rp29
(I3
S'|'
p30
NNNI-1
I-1
I63
tp31
bI00
(lp32
S'd_min'
p33
aS'd_max'
p34
aS'N_peaks'
p35
aS'D_half'
p36
aS'I_1'
p37
aS'I_2'
p38
aS'I_3'
p39
aS'I_4'
p40
aS'I_5'
p41
aS'I_6'
p42
aS'I_7'
p43
aS'I_8'
p44
aS'I_9'
p45
aS'I_10'
p46
aS'I_11'
p47
aS'I_12'
p48
aS'I_13'
p49
aS'I_14'
p50
aS'I_15'
p51
aS'I_16'
p52
aS'I_17'
p53
aS'I_18'
p54
aS'I_19'
p55
aS'I_20'
p56
aS'I_21'
p57
aS'I_22'
p58
aS'I_23'
p59
aS'I_24'
p60
aS'I_25'
p61
aS'I_26'
p62
aS'I_27'
p63
aS'I_28'
p64
aS'I_29'
p65
aS'I_30'
p66
aS'I_31'
p67
aS'I_32'
p68
aS'I_33'
p69
aS'I_34'
p70
aS'I_35'
p71
aS'I_36'
p72
aS'I_37'
p73
aS'I_38'
p74
aS'I_39'
p75
aS'I_40'
p76
aS'I_41'
p77
aS'I_42'
p78
aS'I_43'
p79
aS'I_44'
p80
aS'I_45'
p81
aS'I_46'
p82
aS'I_47'
p83
aS'I_48'
p84
aS'I_49'
p85
aS'I_50'
p86
atp87
bsS'name'
p88
Nstp89
Rp90
ag15
(cpandas.core.indexes.numeric
Int64Index
p91
(dp92
g18
g19
(g20
(I0
tp93
g22
tp94
Rp95
(I1
(I20
tp96
g26
(S'i8'
p97
I0
I1
tp98
Rp99
(I3
S'<'
p100
NNNI-1
I-1
I0
tp101
bI00
S'\x00\x00\x00\x00\x00\x00\x00\x00\x01\x00\x00\x00\x00\x00\x00\x00\x02\x00\x00\x00\x00\x00\x00\x00\x03\x00\x00\x00\x00\x00\x00\x00\x04\x00\x00\x00\x00\x00\x00\x00\x05\x00\x00\x00\x00\x00\x00\x00\x06\x00\x00\x00\x00\x00\x00\x00\x07\x00\x00\x00\x00\x00\x00\x00\x08\x00\x00\x00\x00\x00\x00\x00\t\x00\x00\x00\x00\x00\x00\x00\n\x00\x00\x00\x00\x00\x00\x00\x0b\x00\x00\x00\x00\x00\x00\x00\x0c\x00\x00\x00\x00\x00\x00\x00\r\x00\x00\x00\x00\x00\x00\x00\x0e\x00\x00\x00\x00\x00\x00\x00\x0f\x00\x00\x00\x00\x00\x00\x00\x10\x00\x00\x00\x00\x00\x00\x00\x11\x00\x00\x00\x00\x00\x00\x00\x12\x00\x00\x00\x00\x00\x00\x00\x13\x00\x00\x00\x00\x00\x00\x00'
p102
tp103
bsg88
Nstp104
Rp105
a(lp106
g19
(g20
(I0
tp107
g22
tp108
Rp109
(I1
(I54
I20
tp110
g29
I01
(lp111
F6.72
aF5.03
aF4.2
aF3.62
aF3.3
aF3.1
aF2.9
aF2.76
aF2.62
aF2.55
aF2.48
aF2.44
aF2.39
aF2.31
aF2.26
aF2.2
aF2.15
aF2.1
aF2.06
aF2.03
aF24.43
aF6.72
aF5.03
aF4.2
aF3.62
aF3.3
aF3.08
aF2.86
aF2.76
aF2.61
aF2.55
aF2.48
aF2.44
aF2.39
aF2.31
aF2.26
aF2.19
aF2.15
aF2.1
aF2.06
acnumpy.core.multiarray
scalar
p112
(g99
S'\x10\x00\x00\x00\x00\x00\x00\x00'
p113
tp114
Rp115
ag112
(g99
S'\x10\x00\x00\x00\x00\x00\x00\x00'
p116
tp117
Rp118
ag112
(g99
S'\x10\x00\x00\x00\x00\x00\x00\x00'
p119
tp120
Rp121
ag112
(g99
S'\x10\x00\x00\x00\x00\x00\x00\x00'
p122
tp123
Rp124
ag112
(g99
S'\x10\x00\x00\x00\x00\x00\x00\x00'
p125
tp126
Rp127
ag112
(g99
S'\x10\x00\x00\x00\x00\x00\x00\x00'
p128
tp129
Rp130
ag112
(g99
S'\x10\x00\x00\x00\x00\x00\x00\x00'
p131
tp132
Rp133
ag112
(g99
S'\x10\x00\x00\x00\x00\x00\x00\x00'
p134
tp135
Rp136
ag112
(g99
S'\x10\x00\x00\x00\x00\x00\x00\x00'
p137
tp138
Rp139
ag112
(g99
S'\x10\x00\x00\x00\x00\x00\x00\x00'
p140
tp141
Rp142
ag112
(g99
S'\x10\x00\x00\x00\x00\x00\x00\x00'
p143
tp144
Rp145
ag112
(g99
S'\x10\x00\x00\x00\x00\x00\x00\x00'
p146
tp147
Rp148
ag112
(g99
S'\x10\x00\x00\x00\x00\x00\x00\x00'
p149
tp150
Rp151
ag112
(g99
S'\x10\x00\x00\x00\x00\x00\x00\x00'
p152
tp153
Rp154
ag112
(g99
S'\x10\x00\x00\x00\x00\x00\x00\x00'
p155
tp156
Rp157
ag112
(g99
S'\x10\x00\x00\x00\x00\x00\x00\x00'
p158
tp159
Rp160
ag112
(g99
S'\x10\x00\x00\x00\x00\x00\x00\x00'
p161
tp162
Rp163
ag112
(g99
S'\x10\x00\x00\x00\x00\x00\x00\x00'
p164
tp165
Rp166
ag112
(g99
S'\x10\x00\x00\x00\x00\x00\x00\x00'
p167
tp168
Rp169
ag112
(g99
S'\x10\x00\x00\x00\x00\x00\x00\x00'
p170
tp171
Rp172
aF167.92
aF46.45
aF36.51
aF32.06
aF21.5
aF17.11
aF15.31
aF13.71
aF13.17
aF11.29
aF10.44
aF9.89
aF9.57
aF8.71
aF8.25
aF8.18
aF7.93
aF7.3
aF6.68
aF5.2
aF1.0
aF1.0
aF1.0
aF1.0
aF1.0
aF1.0
aF1.0
aF1.0
aF1.0
aF1.0
aF1.0
aF1.0
aF1.0
aF1.0
aF1.0
aF1.0
aF1.0
aF1.0
aF1.0
aF1.0
aF0.9958054135306508
aF0.9936031689689399
aF0.983498526089836
aF0.9755112188451737
aF0.974347609502941
aF0.9754934843658891
aF0.9612544299274796
aF0.9524458323602732
aF0.9425158460337232
aF0.9549115126102238
aF0.9227689142789486
aF0.949196722887087
aF0.934373576309795
aF0.9297937623247835
aF0.9195010602299385
aF0.9262308159463104
aF0.9394527817632412
aF0.9166605154947075
aF0.9059428256350421
aF0.9053193727345171
aF0.9965755237278626
aF0.9776219024187153
aF0.9790056687146675
aF0.968272318561336
aF0.949044456063015
aF0.9498199531244671
aF0.9228335602614987
aF0.9113700234897024
aF0.9224850722192346
aF0.9014737621014983
aF0.8778489817665166
aF0.8910456068753043
aF0.8848967350037965
aF0.8582135560159182
aF0.8622292942157997
aF0.8611246924890119
aF0.8482653447042134
aF0.8307119877445943
aF0.8341619378500881
aF0.8191958189085848
aF0.9855055204462935
aF0.9558495394121869
aF0.9563365201528019
aF0.9429921064081048
aF0.922844161686129
aF0.9093772181011675
aF0.88976481551223
aF0.8637922069197818
aF0.8644809250825828
aF0.8489239686748474
aF0.821120944825953
aF0.8233191699698672
aF0.8171981776765376
aF0.7836023606632069
aF0.7915484365165272
aF0.7822745005198093
aF0.7917408831762301
aF0.7577679365335326
aF0.7401034568814243
aF0.7140748719710818
aF0.972818550393259
aF0.9472895517792413
aF0.9409326621153344
aF0.9161783413097976
aF0.8822900417517036
aF0.8851906775187478
aF0.8367891595932676
aF0.8285856176353067
aF0.8125461578739464
aF0.7954183881112413
aF0.7827299905280606
aF0.7827935729381532
aF0.7655952923310554
aF0.7444162057108686
aF0.7183954162554932
aF0.7263705468806291
aF0.7358495801506071
aF0.6745060987450473
aF0.6650484815305033
aF0.6325365725650601
aF0.9666867795103051
aF0.929752923954916
aF0.9243039211628072
aF0.8986926885864047
aF0.8571219989285626
aF0.8486509884305468
aF0.8070929536390588
aF0.7870198086031313
aF0.7882850414125123
aF0.760011099463526
aF0.7296353303338858
aF0.7343455755067813
aF0.5946006074411542
aF0.6826744690999437
aF0.6580471053958477
aF0.6671290053627857
aF0.6574170216212838
aF0.6096899695772499
aF0.6029141182450222
aF0.5719506875248094
aF0.9551060158573891
aF0.9134820106405872
aF0.8990022278662158
aF0.8709664988501461
aF0.8236707144383167
aF0.8100127827596793
aF0.7630809602441168
aF0.741522651101082
aF0.7418649812495405
aF0.7088302398717395
aF0.6751428190859579
aF0.6869864988609107
aF0.5437919514047077
aF0.6152346781140322
aF0.6029731966131828
aF0.6097531162828999
aF0.5982598091219109
aF0.5534761597608878
aF0.5442056698761208
aF0.48874058360145184
aF0.951340150528756
aF0.9047669592682336
aF0.8944703606570948
aF0.8584830215260945
aF0.8044272480055482
aF0.7885289756088054
aF0.7289234431279392
aF0.7165586239654534
aF0.7179662298077694
aF0.6720312018252451
aF0.6480308726024153
aF0.6564491888015428
aF0.5132475322703113
aF0.5932597227858103
aF0.5572324982386411
aF0.5480566334880751
aF0.5630658381137874
aF0.49707753088550755
aF0.48957526233335896
aF0.48173135993088884
aF0.9413128394042363
aF0.8903052285933096
aF0.873934113111148
aF0.840052209584188
aF0.7797020588131094
aF0.7524936126807574
aF0.7049076836911073
aF0.6768713098305339
aF0.6665058785276008
aF0.6313208361595856
aF0.6044999112005683
aF0.6294543038775507
aF0.47350417615793466
aF0.540829649246453
aF0.5040434426798606
aF0.5147039145248119
aF0.517037877677365
aF0.44510930727204795
aF0.45242682039294796
aF0.42597761217447205
aF0.9290096012364106
aF0.8675545753980074
aF0.8473744422942736
aF0.8151329065407008
aF0.7427546462055764
aF0.7106970745834233
aF0.6589680079569706
aF0.6440593202911038
aF0.6339694613493977
aF0.5910963803416169
aF0.5507259353540137
aF0.5642584724057335
aF0.43319893697798023
aF0.48158526080487507
aF0.46029003520441436
aF0.4716811973114019
aF0.4454801199721848
aF0.3843557196246612
aF0.4110971159336402
aF0.38191988988069053
aF0.9291181047349868
aF0.8604090918140928
aF0.836596472372685
aF0.7989599519340337
aF0.7249079132844279
aF0.6995150022820557
aF0.6274491342931912
aF0.6138789505588191
aF0.6066099277889925
aF0.5552389467842387
aF0.5285186774804641
aF0.5272837499432305
aF0.4081860288534548
aF0.4533042877787982
aF0.43838658385149726
aF0.43120194336651196
aF0.4231760676736848
aF0.366395125546366
aF0.3613974387954159
aF0.308881217115111
aF0.9154837138895062
aF0.845191191593345
aF0.8205551703645008
aF0.7760780657592143
aF0.7044035217867883
aF0.6751733468903137
aF0.6064558648860048
aF0.583964103501718
aF0.5656642120434033
aF0.5148436825553431
aF0.4915181742836846
aF0.5056046150807608
aF0.3773052391799545
aF0.4261723227188917
aF0.3843211170714662
aF0.3878867690502414
aF0.3965190857067901
aF0.3156137469040679
aF0.3160713562415805
aF0.266642420278729
aF0.9150523463219958
aF0.837486923729438
aF0.8106576492537313
aF0.762511032382373
aF0.6834694280692978
aF0.6515098112147195
aF0.5860009463387313
aF0.5614117238107883
aF0.5188741801064263
aF0.49088980699266205
aF0.4680795642907885
aF0.44828154358482014
aF0.3549104024297646
aF0.39820017228000487
aF0.36072630588117455
aF0.35847572335848316
aF0.34622264476388565
aF0.2910113775861893
aF0.28158224482356276
aF0.2616687415807743
aF0.9126229265246065
aF0.8275940410377723
aF0.7983076643328524
aF0.7495473097561481
aF0.6655714314854437
aF0.6196276270032957
aF0.5656269011269156
aF0.5295566710849151
aF0.5146598483484041
aF0.4672608990565456
aF0.43687766398295047
aF0.43960418627199355
aF0.3333378891419893
aF0.34491026489830495
aF0.32785519410232156
aF0.31679035727887517
aF0.3244697682931375
aF0.25606992917256705
aF0.2656881947048578
aF0.248626354190003
aF0.9039135359437687
aF0.819313428107682
aF0.782160073000686
aF0.7322762964344168
aF0.6410797469346476
aF0.611049209564168
aF0.5426842222157845
aF0.503479014059916
aF0.4968609165088466
aF0.4404926928531787
aF0.407227533743784
aF0.39097537095654983
aF0.30631814730447987
aF0.3309797891349693
aF0.3013098364070326
aF0.2993668361622629
aF0.2950367268368113
aF0.2338120080718518
aF0.23884245364496703
aF0.19530036976187967
aF0.8880773180052293
aF0.7967318232388773
aF0.7624103956495258
aF0.7144421654546583
aF0.6326837788888184
aF0.5730753175792994
aF0.49285055573259173
aF0.47451891740136026
aF0.44794910638356045
aF0.4075007707960782
aF0.3741880031967796
aF0.3691863934542236
aF0.2850326499620349
aF0.31007040699371397
aF0.27313640259372196
aF0.26732560653004084
aF0.2670932194862587
aF0.21181555909610705
aF0.21091131688667694
aF0.20416117027566025
aF0.8791535668540335
aF0.7838634033976679
aF0.7441675955602337
aF0.6944612260965048
aF0.6152326618777638
aF0.5410542609469637
aF0.47168950433094825
aF0.44033526931404565
aF0.42550563716186807
aF0.3769519639884072
aF0.3556668837319441
aF0.3443862489689051
aF0.2604487471526196
aF0.27299100869230936
aF0.25008268996782324
aF0.2288389980545748
aF0.2426370449015605
aF0.1859430200853745
aF0.1849284569140895
aF0.1951717728479467
aF0.8901097737834376
aF0.7801408591273035
aF0.7436558663694207
aF0.6915710526861002
aF0.6060706912488902
aF0.5358664420885763
aF0.47246202574427615
aF0.4338713234560187
aF0.4209379140760775
aF0.36116482703336006
aF0.33591049017286295
aF0.33484768311243346
aF0.24511465451784356
aF0.2492877432031267
aF0.22522174911192228
aF0.2350418420808844
aF0.2248285020546119
aF0.1795671883996089
aF0.19205885465732359
aF0.1521181866790648
aF0.8867091153524511
aF0.7714444813477755
aF0.7351556217032902
aF0.6741757308305881
aF0.5800701909584856
aF0.519908295475033
aF0.4481782979421961
aF0.4080079351021326
aF0.38208309385557776
aF0.33427884318924583
aF0.31384013142315886
aF0.31257729911735105
aF0.22988762338648447
aF0.2336818799877553
aF0.20715971057942162
aF0.20381202972691995
aF0.217290664597807
aF0.16496392763496334
aF0.1706734104839268
aF0.15147832664392807
aF0.8805085373728391
aF0.7598444708474463
aF0.7198286745748279
aF0.6613450183355087
aF0.5732910949381561
aF0.49686278267846734
aF0.42263801577874993
aF0.384641496065562
aF0.3694720823888702
aF0.3226065240180058
aF0.28827181506038363
aF0.2743089683346905
aF0.2173082763857251
aF0.22249464294613047
aF0.18764760984448822
aF0.19699496145176065
aF0.1926653114066349
aF0.14938731488284573
aF0.140623354495958
aF0.12740084211561875
aF0.8750277874813426
aF0.7470259846373081
aF0.7056242903943042
aF0.6414332773944931
aF0.5563862714300898
aF0.4761862222316067
aF0.4039924872292554
aF0.36879664153979386
aF0.3478835819788522
aF0.2997545785287045
aF0.27908625384797536
aF0.2638132928605453
aF0.2004684889901291
aF0.20558984544632622
aF0.1798623465284441
aF0.19268587044909471
aF0.18276781637674694
aF0.12677352482594076
aF0.13466524159755822
aF0.1339983414078001
aF0.8708173224512261
aF0.7367816008867959
aF0.6959521245298862
aF0.6202262415314811
aF0.5293528754352044
aF0.46866437215859724
aF0.388007329296909
aF0.3469338777401088
aF0.31518365122436465
aF0.28028426959363634
aF0.25765007103954535
aF0.24096201028929803
aF0.19595292331055428
aF0.20788643757697428
aF0.16077479304744116
aF0.16960064744572884
aF0.1652385331463661
aF0.13011886335427003
aF0.11786815845967102
aF0.10009388333532634
aF0.8685096382863856
aF0.7267898020497707
aF0.6819279691084986
aF0.613821865871092
aF0.5203658990894929
aF0.43632415259399066
aF0.36568628871056524
aF0.3320508477744989
aF0.33207317722990864
aF0.2613362520811494
aF0.24424727681742836
aF0.24336270567770266
aF0.18213895216400913
aF0.17022944564281087
aF0.14959770448551818
aF0.1575493304237733
aF0.16819369324801903
aF0.11275296931265481
aF0.11713728354476358
aF0.1067171377192603
aF0.8588184233647728
aF0.7137693937467496
aF0.6719616125493767
aF0.5960403588373009
aF0.49977723120394996
aF0.4240863250459254
aF0.3487463425939337
aF0.31874366058473613
aF0.28933916543146565
aF0.25329962385151383
aF0.23980434525219038
aF0.22349861482094066
aF0.16820273348519363
aF0.16779189714456572
aF0.1376307076280784
aF0.13325403238257968
aF0.14219467479785314
aF0.1013144865209842
aF0.10340553189876957
aF0.07783215509368091
aF0.8575243206622417
aF0.7023472737886037
aF0.6565676779040613
aF0.5842749704767233
aF0.48411508182324714
aF0.40372567905365353
aF0.3298111185144413
aF0.2948761522644764
aF0.2877787049608316
aF0.24275328359129306
aF0.227831961875444
aF0.19936829920290153
aF0.15125284738041003
aF0.16102371341719526
aF0.12471104039117534
aF0.14752099823985343
aF0.12714037143617107
aF0.08252994295876293
aF0.09125686130271002
aF0.08133520466169838
aF0.8583791165168789
aF0.6943694964419989
aF0.6485594634789601
aF0.5716634553628773
aF0.4695123456856394
aF0.3839456984470653
aF0.3115470224127775
aF0.28256587525836935
aF0.26482427954480475
aF0.23538385644693838
aF0.2001149952640303
aF0.1908511220320043
aF0.13231055429005317
aF0.1436158867792894
aF0.11455923913847639
aF0.11910132165392019
aF0.13298262499835334
aF0.07825050165173163
aF0.08941324347384114
aF0.09201263186818998
aF0.8513210962558352
aF0.6822348949022297
aF0.6299435309092416
aF0.5584987672737066
aF0.4538138554676051
aF0.3743220833137072
aF0.30127369468022447
aF0.27787924715076856
aF0.26416817483333804
aF0.21679903804649442
aF0.19810413213355432
aF0.18269439770851353
aF0.13804328018223233
aF0.11022232663434636
aF0.10685888527321837
aF0.1160353470370866
aF0.10642192012112694
aF0.06564188851578089
aF0.08283611400378654
aF0.048420420582880125
aF0.8487805265330749
aF0.6776321871615213
aF0.6167793473697283
aF0.5458665340708974
aF0.43811552628725475
aF0.36530918198459245
aF0.2920738095927847
aF0.2755066699917075
aF0.24879529135577802
aF0.20728864771536043
aF0.18287354960928248
aF0.1581880822848114
aF0.12610022779043278
aF0.11702439684200784
aF0.08920898765398375
aF0.09473757346810635
aF0.08958702313761288
aF0.05789059563406849
aF0.06428501991917349
aF0.0699515433794528
aF0.8440487154244339
aF0.6668017252497537
aF0.6031814173486766
aF0.5291980027762239
aF0.4248569716970903
aF0.3386667922744704
aF0.28902790250779764
aF0.25591250981114133
aF0.23215105469990469
aF0.19551705000924957
aF0.1715181002841582
aF0.16119544702257793
aF0.1047925588458618
aF0.10403476923734062
aF0.09261845494392676
aF0.08545936222993072
aF0.08570188520912028
aF0.05910135920080946
aF0.061034202965206445
aF0.07979079188069169
aF0.8478119343262726
aF0.6635791513679532
aF0.5972947761194031
aF0.5226253962334514
aF0.4098290960740086
aF0.3003550586106586
aF0.2910329576947961
aF0.24942685823887126
aF0.23041162666454706
aF0.17447912684220265
aF0.15158136987923276
aF0.10962464446366689
aF0.10531738800303721
aF0.10711530658009953
aF0.08244275156701188
aF0.07978958013813549
aF0.07534915510197103
aF0.0435734637306082
aF0.057576929559687615
aF0.05248718081596505
aF0.8422464987773507
aF0.6486804459393464
aF0.581023480556804
aF0.507531439700002
aF0.3880578747964215
aF0.2881605170277079
aF0.2756296049518623
aF0.23385134469276278
aF0.20619809988086124
aF0.16755996793488312
aF0.1495870826426711
aF0.13940097738825885
aF0.10155277145026578
aF0.09566452384511885
aF0.07243353217624288
aF0.06278422249899641
aF0.0736320735282288
aF0.03447457446192387
aF0.05457589603615634
aF0.07527941038426553
aF0.8456498036351319
aF0.64238696959863
aF0.5734840124358398
aF0.4981553027948702
aF0.3838236572946313
aF0.31977527031394914
aF0.26666147628842085
aF0.2204402077284384
aF0.19703265702410355
aF0.16265153850897207
aF0.1339458767463888
aF0.11899452476687483
aF0.09030523917995445
aF0.0862110501249386
aF0.0790561620245327
aF0.07011096128706859
aF0.07778726378829466
aF0.04632400285717205
aF0.04139438134274436
aF0.03996926886383042
aF0.8389596366985297
aF0.6288116163570274
aF0.5608634718641341
aF0.48862071394534573
aF0.36954229869484323
aF0.30844726015271096
aF0.2514460635205732
aF0.19621228949021996
aF0.1878683532819728
aF0.14968613183696122
aF0.13190311982003314
aF0.12062295563307911
aF0.08550797266514805
aF0.09228384910549658
aF0.06743142082193715
aF0.06604409630369218
aF0.05426832635102542
aF0.04036891133341131
aF0.03550661598786426
aF0.02819999538461614
aF0.8363581991594947
aF0.6184054159379526
aF0.5464815199458335
aF0.4813961091428926
aF0.3649929841249051
aF0.2969132965064247
aF0.23005566982434794
aF0.19517928761528985
aF0.16913978999535875
aF0.14142134796818154
aF0.11248342410608572
aF0.09921335770994993
aF0.08037357630979498
aF0.06830204529113186
aF0.06001971356149618
aF0.05664711377134564
aF0.06148210100994247
aF0.03702414060557058
aF0.038336471359900065
aF0.006498139094189405
aF0.8330792763610573
aF0.6046022702269884
aF0.5331226771501052
aF0.4639526384486295
aF0.3485606988606047
aF0.26101550660821576
aF0.2156337813957531
aF0.1827788289117579
aF0.18140324493255366
aF0.13026040574705555
aF0.11311715605020127
aF0.10115767805333495
aF0.07433333333333332
aF0.07058442788088476
aF0.05257112873797922
aF0.05605577914792437
aF0.054788390804823214
aF0.0369543011454807
aF0.035965050964077545
aF0.05350042272720354
aF0.829001132670668
aF0.5955478286828161
aF0.5196901166710032
aF0.4520628586819152
aF0.3423484018083458
aF0.2732327063229994
aF0.20226034937280918
aF0.17560215929079037
aF0.1497958516736062
aF0.1225682925325276
aF0.10090982417712528
aF0.10255590092616357
aF0.06886771450265756
aF0.06159835978044978
aF0.04171614975477558
aF0.0539883789152968
aF0.051023508146555305
aF0.034081656523857265
aF0.022428296855135536
aF0.01035158289142372
aF0.8429451554511098
aF0.5915642345596018
aF0.522245639620834
aF0.45277696977230825
aF0.3366127763004061
aF0.24281152494912073
aF0.19150395434398446
aF0.16825018037923845
aF0.15929745991360703
aF0.11968859838441141
aF0.09988729872128818
aF0.09797435385595195
aF0.06317342444950645
aF0.06420420163879575
aF0.04452681192329012
aF0.05653441549752447
aF0.03848995481002863
aF0.027443642962510405
aF0.018389154927921206
aF0.036554197260881265
aF0.8354795854637068
aF0.5813429629468996
aF0.5053124464099865
aF0.43974896803198876
aF0.32988086432145697
aF0.2230851442242879
aF0.18827116950085462
aF0.15723128246549029
aF0.1441471467773245
aF0.10728803107849787
aF0.09786429966848213
aF0.06239949134408311
aF0.05556305998481397
aF0.05494118987107476
aF0.04270990902396245
aF0.04817445265617441
aF0.0477067694145484
aF0.02334682048760435
aF0.02240776619110647
aF0.03898943715393828
aF0.8406639355542147
aF0.5704304840157216
aF0.49539497318281805
aF0.4316493670623821
aF0.31435264461452406
aF0.22236966701479519
aF0.18218348349218305
aF0.14681182666735534
aF0.14223162427746908
aF0.1025812419066412
aF0.06424694381955955
aF0.0620777263418493
aF0.05497008352315869
aF0.03896267503862062
aF0.04002951343242471
aF0.041164784716575226
aF0.04546505477984218
aF0.03185488495794302
aF0.015560343532246326
aF0.05217526299765075
aF0.8366916489356071
aF0.5580743030184514
aF0.48709957172339574
aF0.4240597509685707
aF0.30768020922015893
aF0.2098435370724394
aF0.1648276432302983
aF0.14774659830264486
aF0.12472726748044172
aF0.09627421841277671
aF0.08544266516694292
aF0.06083877529681277
aF0.05489521640091116
aF0.05217804497789547
aF0.02767456233503266
aF0.03739333614682299
aF0.028918904980538573
aF0.02456503643575735
aF0.009749393409229586
aF0.04266417989427199
aF0.8459911926916277
aF0.5583515694124394
aF0.4784572396042766
aF0.425232560548615
aF0.2997274705596274
aF0.2071814096119206
aF0.16522591423081007
aF0.14182391690862467
aF0.1331870541394603
aF0.08461799346364926
aF0.07350799934880417
aF0.06471854407805587
aF0.04860182232346241
aF0.04172749859399583
aF0.029482235599823808
aF0.0174741896635135
aF0.03770278379529052
aF0.02695533454236984
aF0.01198103334060676
aF0.008048800944252189
aF0.8121063440143118
aF0.5423049040722636
aF0.4667938055857795
aF0.4201035904448174
aF0.23983288582750284
aF0.19374733015740497
aF0.1586915901387642
aF0.12272711861238064
aF0.11579397618465706
aF0.08711111796263181
aF0.05971983779303812
aF0.040541122866385934
aF0.04096021260440394
aF0.047244587773814864
aF0.029107096313040433
aF0.03100032423752715
aF0.03382773323930785
aF0.003818884135767911
aF0.022376503084238046
aF4.463620754354586e-05
aF0.840094953793388
aF0.5403663790616332
aF0.4582924817276533
aF0.4104339196552511
aF0.27819796684556164
aF0.1773538875344542
aF0.14407970972507897
aF0.12369388637169502
aF0.11304269793983526
aF0.07634735154467534
aF0.06474684762017523
aF0.05645362475430631
aF0.03857175398633257
aF0.03201737038065338
aF0.026359490224600296
aF0.025022645160626245
aF0.02207800434269935
aF0.023443204620533255
aF0.013069826208641092
aF0.006424042989667119
aF0.8321530269829674
aF0.5305184207859852
aF0.4460360206199589
aF0.4002494457911202
aF0.26724955151005036
aF0.17850709711161608
aF0.14188478325946097
aF0.11861245191867424
aF0.10566794327664802
aF0.07079700314484799
aF0.06322378936774806
aF0.060853899783377643
aF0.037396507213363704
aF0.03505335696844143
aF0.02630599499421227
aF0.03408492964560324
aF0.027921224880018004
aF0.011797545625608256
aF0.02047523789986973
aF4.463620754354586e-05
aF0.8032778642277197
aF0.5121123454070633
aF0.435003037999385
aF0.386046532827812
aF0.21261429649614208
aF0.16883808450264998
aF0.12361634172484719
aF0.10330129654410174
aF0.10900820706775062
aF0.0687891718566936
aF0.04561987923277291
aF0.04469803307742111
aF0.039181548974943047
aF0.028194548263317885
aF0.03770309691856091
aF0.027250748834288893
aF0.017587792233199645
aF0.0273058093939184
aF0.008494883993189982
aF0.024617604957690005
aF0.8269766161728435
aF0.5117534573412075
aF0.4286345855902736
aF0.38521930097167834
aF0.25113665765213494
aF0.1674338488126002
aF0.13863518400494415
aF0.10531351131596518
aF0.09772053037683304
aF0.06557951532342604
aF0.05786526166232536
aF0.04977719899156007
aF0.033830827638572515
aF0.025794303369426706
aF0.01959348177690668
aF0.028736515836172552
aF0.015396836786088563
aF0.022960432255155913
aF0.016979354354844815
aF4.463620754354586e-05
aF0.7966591508145701
aF0.4985474227461734
aF0.41572785586725647
aF0.3658117140074999
aF0.19349214511857207
aF0.1468520627021162
aF0.12652138435837268
aF0.0935908333441598
aF0.07899101782802989
aF0.05897761608188938
aF0.04164434347620175
aF0.04291583624574755
aF0.029718451025056946
aF0.01992368422926055
aF0.02961359370713979
aF0.01539279060431699
aF0.020413489779633368
aF0.010076556539869247
aF0.00731610532793793
aF0.008623179662922536
aF0.7907787904770978
aF0.49226545491852286
aF0.4125475140147125
aF0.36129193859158437
aF0.1899128141979411
aF0.14639751946244192
aF0.11567747713819443
aF0.08438730155511145
aF0.08440434367189549
aF0.05602614540297219
aF0.0414746625621596
aF0.0363539953675979
aF0.03653242217160213
aF0.019567263951476833
aF0.023263231817597197
aF0.01885569886053669
aF0.018355738661095394
aF0.010053475450010277
aF0.005768786021430914
aF4.463620754354586e-05
aF0.8124159759492732
aF0.4827620006525929
aF0.40303915988599
aF0.35158837300847373
aF0.22191996641827497
aF0.16069894245809058
aF0.10538741948878394
aF0.08635345109765956
aF0.07940895898465905
aF0.04821773447616699
aF0.041997713414634145
aF0.04140195118550837
aF0.030142217160212606
aF0.025404608846079917
aF0.015381813670421577
aF0.021924928719210302
aF0.015776521675518462
aF0.012317579898045744
aF0.007626253849581168
aF0.024826480090890026
aF0.819143192860999
aF0.4824179404973732
aF0.40093655016320934
aF0.35230613048252435
aF0.22078427499224335
aF0.15794666974189223
aF0.1224575596048553
aF0.09023952651757008
aF0.07457770805833734
aF0.048896035024973784
aF0.042152424224484966
aF0.038325998168585215
aF0.032286484434320424
aF0.02568284817290648
aF0.017057728182767025
aF0.014223425389342364
aF0.011440436994282512
aF0.013288717463612505
aF0.006268784061525355
aF0.054815941035926914
atp173
ba(lp174
g15
(g16
(dp175
g18
g19
(g20
(I0
tp176
g22
tp177
Rp178
(I1
(I54
tp179
g29
I00
(lp180
g33
ag34
ag35
ag36
ag37
ag38
ag39
ag40
ag41
ag42
ag43
ag44
ag45
ag46
ag47
ag48
ag49
ag50
ag51
ag52
ag53
ag54
ag55
ag56
ag57
ag58
ag59
ag60
ag61
ag62
ag63
ag64
ag65
ag66
ag67
ag68
ag69
ag70
ag71
ag72
ag73
ag74
ag75
ag76
ag77
ag78
ag79
ag80
ag81
ag82
ag83
ag84
ag85
ag86
atp181
bsg88
Nstp182
Rp183
a(dp184
S'0.14.1'
p185
(dp186
S'axes'
p187
g14
sS'blocks'
p188
(lp189
(dp190
S'mgr_locs'
p191
c__builtin__
slice
p192
(I0
I54
I1
tp193
Rp194
sS'values'
p195
g109
sasstp196
bsb.